Certificate:
    Data:
        Version: 3 (0x2)
        Serial Number: 2 (0x2)
    Signature Algorithm: sha1WithRSAEncryption
        Issuer: O=Jolokia, OU=Dev/emailAddress=roland@jolokia.org, L=Pegnitz, ST=Bavaria, C=DE, CN=ca.test.jolokia.org
        Validity
            Not Before: Oct  1 13:01:50 2015 GMT
            Not After : Sep 28 13:01:50 2025 GMT
        Subject: CN=adminuser, C=XX, O=Default Company Ltd
        Subject Public Key Info:
            Public Key Algorithm: rsaEncryption
                Public-Key: (4096 bit)
                Modulus:
                    00:99:8d:28:26:bf:7b:a2:84:78:4c:96:af:44:41:
                    dd:e8:97:69:13:b0:23:b8:8e:c2:07:95:84:f7:79:
                    5f:e6:bc:e3:63:53:90:ad:4a:66:b6:d0:ee:60:97:
                    cd:8e:8d:6f:bf:30:ce:5e:af:be:f0:79:eb:6c:8e:
                    c3:bc:e9:c2:15:f6:4e:ea:57:a2:2d:9e:fb:85:91:
                    58:ed:90:37:0d:60:12:e9:6e:7c:07:b6:b5:b9:dd:
                    81:74:f3:39:c6:e2:f0:66:fc:21:e2:d9:e3:77:58:
                    e3:c2:72:fa:7b:99:8e:71:72:72:e8:a5:4e:c1:f1:
                    14:ec:f9:08:80:79:17:dc:52:d2:1c:57:62:f7:c9:
                    19:61:e7:41:fe:ac:0a:c7:c2:56:cb:e9:1c:16:38:
                    16:b4:30:2c:c3:7a:79:e9:af:0f:c9:f8:80:13:27:
                    16:6e:9c:3c:dd:67:11:d4:65:a3:23:a1:b9:f2:74:
                    3d:5f:ff:fe:3f:9c:3d:46:8d:8d:b5:d4:8a:40:44:
                    e4:64:a0:2f:fd:35:35:b0:fc:40:86:f8:ec:bc:b3:
                    36:e0:8d:44:c4:ba:29:10:fb:87:d7:ea:e5:06:40:
                    94:09:af:5f:f7:7b:c6:a6:41:d7:5d:48:64:f5:fd:
                    be:3a:4a:a7:4c:03:36:10:66:74:de:cd:b5:7a:83:
                    c0:52:4f:f4:24:14:7e:93:f2:7f:34:51:fb:5a:02:
                    a5:2e:05:6b:fd:bd:0c:7d:65:11:eb:54:29:a4:df:
                    a6:53:a9:41:95:ac:61:9c:40:80:03:f5:60:ed:7b:
                    66:47:64:89:e0:d9:6f:e7:e4:7d:40:09:9e:7d:fc:
                    8d:c3:8a:6b:c5:16:a4:13:34:af:bc:15:88:6b:71:
                    cb:70:c1:ea:ef:2f:f1:08:e0:a3:3a:10:5e:40:14:
                    b1:f2:78:5c:71:8a:24:d9:fc:9d:e5:6b:1b:e2:74:
                    a9:f0:bc:fe:3c:1b:21:ba:c2:b0:28:c5:34:1b:f2:
                    3c:ed:7e:0d:f5:30:83:fd:07:55:d7:80:ba:d7:70:
                    5b:7c:08:93:42:32:d7:e4:0f:30:eb:a6:8c:a7:71:
                    4d:bf:63:37:52:ed:ce:55:02:e8:e6:e5:5a:3f:f0:
                    fc:cf:20:97:de:00:53:5b:eb:3f:21:5f:94:6c:c6:
                    3f:a6:9d:63:dc:99:37:ec:22:12:48:d2:59:d3:ae:
                    56:3f:a9:9a:99:c0:78:69:e4:08:42:25:e1:fe:f0:
                    9b:e0:c6:89:60:d6:1d:6e:ff:96:e6:48:cb:df:52:
                    ba:39:10:10:99:03:22:a1:1d:72:2f:d6:1e:ce:dd:
                    42:3f:71:2a:82:b9:56:eb:d4:7d:a6:bd:c5:e3:73:
                    25:1c:f1
                Exponent: 65537 (0x10001)
        X509v3 extensions:
            X509v3 Extended Key Usage: critical
                TLS Web Client Authentication
    Signature Algorithm: sha1WithRSAEncryption
         d5:ae:af:b1:6f:26:f9:93:70:74:f6:42:91:67:f5:27:e8:75:
         30:0f:5e:72:a8:d0:ec:82:d1:d1:2c:61:a6:a5:0d:dc:85:6f:
         f3:44:7e:a7:2e:80:57:2d:a9:5a:1f:5c:d3:53:e4:42:9d:8d:
         2a:95:11:65:a1:e2:be:06:68:6b:93:a4:d3:56:1c:46:fb:89:
         86:d8:e9:f6:86:52:47:64:b0:9f:6b:d8:07:68:3a:8e:f7:b5:
         59:48:17:c3:48:ee:ad:38:28:40:18:ac:ca:9c:96:d0:20:68:
         27:17:b0:06:7a:15:55:3b:32:9b:83:d0:ba:6d:d1:fe:20:40:
         86:af:1a:6c:9d:98:42:14:5b:e6:35:e0:2a:d3:09:a7:31:01:
         44:7b:d9:a7:aa:58:41:37:85:9f:95:5e:1d:e4:68:e7:ad:14:
         8b:8f:e4:cb:2c:d2:c6:7f:5e:76:8d:0b:b8:15:f6:97:0c:0b:
         91:98:c0:b6:ad:b4:95:f2:68:fa:d2:99:a5:76:06:c6:49:16:
         2d:78:d5:c9:38:6e:ac:d3:c0:6b:e1:a8:42:bc:ff:c1:13:a8:
         e4:cc:a9:48:b1:1b:6d:6a:eb:c7:3f:29:11:c4:71:9d:80:52:
         0c:56:48:8c:5e:81:bf:2e:32:18:96:a5:c1:96:b8:88:14:1c:
         27:87:2f:ba
-----BEGIN CERTIFICATE-----
MIIEZzCCA0+gAwIBAgIBAjANBgkqhkiG9w0BAQUFADCBkjEQMA4GA1UEChMHSm9s
b2tpYTEMMAoGA1UECxMDRGV2MSEwHwYJKoZIhvcNAQkBFhJyb2xhbmRAam9sb2tp
YS5vcmcxEDAOBgNVBAcTB1BlZ25pdHoxEDAOBgNVBAgTB0JhdmFyaWExCzAJBgNV
BAYTAkRFMRwwGgYDVQQDExNjYS50ZXN0LmpvbG9raWEub3JnMB4XDTE1MTAwMTEz
MDE1MFoXDTI1MDkyODEzMDE1MFowPzESMBAGA1UEAwwJYWRtaW51c2VyMQswCQYD
VQQGEwJYWDEcMBoGA1UECgwTRGVmYXVsdCBDb21wYW55IEx0ZDCCAiIwDQYJKoZI
hvcNAQEBBQADggIPADCCAgoCggIBAJmNKCa/e6KEeEyWr0RB3eiXaROwI7iOwgeV
hPd5X+a842NTkK1KZrbQ7mCXzY6Nb78wzl6vvvB562yOw7zpwhX2TupXoi2e+4WR
WO2QNw1gEulufAe2tbndgXTzOcbi8Gb8IeLZ43dY48Jy+nuZjnFycuilTsHxFOz5
CIB5F9xS0hxXYvfJGWHnQf6sCsfCVsvpHBY4FrQwLMN6eemvD8n4gBMnFm6cPN1n
EdRloyOhufJ0PV///j+cPUaNjbXUikBE5GSgL/01NbD8QIb47LyzNuCNRMS6KRD7
h9fq5QZAlAmvX/d7xqZB111IZPX9vjpKp0wDNhBmdN7NtXqDwFJP9CQUfpPyfzRR
+1oCpS4Fa/29DH1lEetUKaTfplOpQZWsYZxAgAP1YO17ZkdkieDZb+fkfUAJnn38
jcOKa8UWpBM0r7wViGtxy3DB6u8v8QjgozoQXkAUsfJ4XHGKJNn8neVrG+J0qfC8
/jwbIbrCsCjFNBvyPO1+DfUwg/0HVdeAutdwW3wIk0Iy1+QPMOumjKdxTb9jN1Lt
zlUC6OblWj/w/M8gl94AU1vrPyFflGzGP6adY9yZN+wiEkjSWdOuVj+pmpnAeGnk
CEIl4f7wm+DGiWDWHW7/luZIy99SujkQEJkDIqEdci/WHs7dQj9xKoK5VuvUfaa9
xeNzJRzxAgMBAAGjGjAYMBYGA1UdJQEB/wQMMAoGCCsGAQUFBwMCMA0GCSqGSIb3
DQEBBQUAA4IBAQDVrq+xbyb5k3B09kKRZ/Un6HUwD15yqNDsgtHRLGGmpQ3chW/z
RH6nLoBXLalaH1zTU+RCnY0qlRFloeK+Bmhrk6TTVhxG+4mG2On2hlJHZLCfa9gH
aDqO97VZSBfDSO6tOChAGKzKnJbQIGgnF7AGehVVOzKbg9C6bdH+IECGrxpsnZhC
FFvmNeAq0wmnMQFEe9mnqlhBN4WflV4d5GjnrRSLj+TLLNLGf152jQu4FfaXDAuR
mMC2rbSV8mj60pmldgbGSRYteNXJOG6s08Br4ahCvP/BE6jkzKlIsRttauvHPykR
xHGdgFIMVkiMXoG/LjIYlqXBlriIFBwnhy+6
-----END CERTIFICATE-----
